; ModuleID = 'source-C-CXX/12/573.c'
source_filename = "source-C-CXX/12/573.c"
target datalayout = "e-m:e-p270:32:32-p271:32:32-p272:64:64-i64:64-f80:128-n8:16:32:64-S128"
target triple = "x86_64-pc-linux-gnu"

@.str = private unnamed_addr constant [3 x i8] c"%d\00", align 1
@.str.1 = private unnamed_addr constant [4 x i8] c" %d\00", align 1

; Function Attrs: nofree nounwind sspstrong uwtable
define dso_local i32 @main() local_unnamed_addr #0 {
  %1 = alloca i32, align 4
  %2 = alloca [20000 x i32], align 16
  %3 = bitcast i32* %1 to i8*
  call void @llvm.lifetime.start.p0i8(i64 4, i8* nonnull %3) #3
  %4 = bitcast [20000 x i32]* %2 to i8*
  call void @llvm.lifetime.start.p0i8(i64 80000, i8* nonnull %4) #3
  %5 = call i32 (i8*, ...) @__isoc99_scanf(i8* getelementptr inbounds ([3 x i8], [3 x i8]* @.str, i64 0, i64 0), i32* nonnull %1)
  %6 = load i32, i32* %1, align 4, !tbaa !5
  %7 = icmp sgt i32 %6, 0
  br i1 %7, label %11, label %47

8:                                                ; preds = %11
  %9 = getelementptr inbounds [20000 x i32], [20000 x i32]* %2, i64 0, i64 0
  %10 = icmp sgt i32 %16, 0
  br i1 %10, label %19, label %47

11:                                               ; preds = %0, %11
  %12 = phi i64 [ %15, %11 ], [ 0, %0 ]
  %13 = getelementptr inbounds [20000 x i32], [20000 x i32]* %2, i64 0, i64 %12
  %14 = call i32 (i8*, ...) @__isoc99_scanf(i8* getelementptr inbounds ([3 x i8], [3 x i8]* @.str, i64 0, i64 0), i32* nonnull %13)
  %15 = add nuw nsw i64 %12, 1
  %16 = load i32, i32* %1, align 4, !tbaa !5
  %17 = sext i32 %16 to i64
  %18 = icmp slt i64 %15, %17
  br i1 %18, label %11, label %8, !llvm.loop !9

19:                                               ; preds = %8, %42
  %20 = phi i64 [ %43, %42 ], [ 0, %8 ]
  %21 = icmp eq i64 %20, 0
  br i1 %21, label %25, label %22

22:                                               ; preds = %19
  %23 = getelementptr inbounds [20000 x i32], [20000 x i32]* %2, i64 0, i64 %20
  %24 = load i32, i32* %23, align 4, !tbaa !5
  br label %28

25:                                               ; preds = %19
  %26 = load i32, i32* %9, align 16, !tbaa !5
  %27 = call i32 (i8*, ...) @printf(i8* nonnull dereferenceable(1) getelementptr inbounds ([3 x i8], [3 x i8]* @.str, i64 0, i64 0), i32 %26)
  br label %42

28:                                               ; preds = %22, %33
  %29 = phi i64 [ 0, %22 ], [ %34, %33 ]
  %30 = getelementptr inbounds [20000 x i32], [20000 x i32]* %2, i64 0, i64 %29
  %31 = load i32, i32* %30, align 4, !tbaa !5
  %32 = icmp eq i32 %24, %31
  br i1 %32, label %36, label %33

33:                                               ; preds = %28
  %34 = add nuw nsw i64 %29, 1
  %35 = icmp eq i64 %34, %20
  br i1 %35, label %36, label %28, !llvm.loop !11

36:                                               ; preds = %33, %28
  %37 = phi i64 [ %29, %28 ], [ %20, %33 ]
  %38 = and i64 %37, 4294967295
  %39 = icmp eq i64 %38, %20
  br i1 %39, label %40, label %42

40:                                               ; preds = %36
  %41 = call i32 (i8*, ...) @printf(i8* nonnull dereferenceable(1) getelementptr inbounds ([4 x i8], [4 x i8]* @.str.1, i64 0, i64 0), i32 %24)
  br label %42

42:                                               ; preds = %25, %40, %36
  %43 = add nuw nsw i64 %20, 1
  %44 = load i32, i32* %1, align 4, !tbaa !5
  %45 = sext i32 %44 to i64
  %46 = icmp slt i64 %43, %45
  br i1 %46, label %19, label %47, !llvm.loop !12

47:                                               ; preds = %42, %0, %8
  call void @llvm.lifetime.end.p0i8(i64 80000, i8* nonnull %4) #3
  call void @llvm.lifetime.end.p0i8(i64 4, i8* nonnull %3) #3
  ret i32 0
}

; Function Attrs: argmemonly mustprogress nofree nosync nounwind willreturn
declare void @llvm.lifetime.start.p0i8(i64 immarg, i8* nocapture) #1

; Function Attrs: nofree nounwind
declare noundef i32 @__isoc99_scanf(i8* nocapture noundef readonly, ...) local_unnamed_addr #2

; Function Attrs: nofree nounwind
declare noundef i32 @printf(i8* nocapture noundef readonly, ...) local_unnamed_addr #2

; Function Attrs: argmemonly mustprogress nofree nosync nounwind willreturn
declare void @llvm.lifetime.end.p0i8(i64 immarg, i8* nocapture) #1


!llvm.module.flags = !{!0, !1, !2, !3}
!llvm.ident = !{!4}

!0 = !{i32 1, !"wchar_size", i32 4}
!1 = !{i32 7, !"PIC Level", i32 2}
!2 = !{i32 7, !"PIE Level", i32 2}
!3 = !{i32 7, !"uwtable", i32 1}
!4 = !{!"clang version 13.0.0"}
!5 = !{!6, !6, i64 0}
!6 = !{!"int", !7, i64 0}
!7 = !{!"omnipotent char", !8, i64 0}
!8 = !{!"Simple C/C++ TBAA"}
!9 = distinct !{!9, !10}
!10 = !{!"llvm.loop.mustprogress"}
!11 = distinct !{!11, !10}
!12 = distinct !{!12, !10}
